target datalayout = "e-m:e-p270:32:32-p271:32:32-p272:64:64-i64:64-i128:128-f80:128-n8:16:32:64-S128"
target triple = "x86_64-pc-linux-gnu"

%struct._lv_freetype_glyph_cache_data_t = type { i32, i32, %struct.lv_font_glyph_dsc_t }
%struct.lv_font_glyph_dsc_t = type { ptr, i16, i16, i16, i16, i16, i32, i8, %union.anon, ptr }
%union.anon = type { ptr }
%struct._lv_freetype_font_dsc_t = type { i32, %struct._lv_font_t, i32, i32, i32, ptr, ptr, ptr, ptr }
%struct._lv_font_t = type { ptr, ptr, ptr, i32, i32, i8, i8, i8, ptr, ptr, ptr }
%struct._lv_freetype_cache_node_t = type { ptr, i32, i32, i32, ptr, i32, ptr, ptr }

; Function Attrs: nounwind uwtable
define internal zeroext i1 @freetype_get_glyph_dsc_cb(ptr noundef %0, ptr noundef %1, i32 noundef %2, i32 noundef %3) #0 {
  %5 = alloca i1, align 1
  %6 = alloca ptr, align 8
  %7 = alloca ptr, align 8
  %8 = alloca i32, align 4
  %9 = alloca i32, align 4
  %10 = alloca ptr, align 8
  %11 = alloca %struct._lv_freetype_glyph_cache_data_t, align 8
  %12 = alloca ptr, align 8
  %13 = alloca ptr, align 8
  %14 = alloca i32, align 4
  %15 = alloca ptr, align 8
  store ptr %0, ptr %6, align 8, !tbaa !88
  store ptr %1, ptr %7, align 8, !tbaa !19
  store i32 %2, ptr %8, align 4, !tbaa !3
  store i32 %3, ptr %9, align 4, !tbaa !3
  br label %16

16:                                               ; preds = %4
  %17 = load ptr, ptr %6, align 8, !tbaa !88
  %18 = icmp ne ptr %17, null
  br i1 %18, label %23, label %19

19:                                               ; preds = %16
  br label %20

20:                                               ; preds = %19
  br label %21

21:                                               ; preds = %20
  br label %22

22:                                               ; preds = %21, %22
  br label %22

23:                                               ; preds = %16
  br label %24

24:                                               ; preds = %23
  br label %25

25:                                               ; preds = %24
  %26 = load ptr, ptr %7, align 8, !tbaa !19
  %27 = icmp ne ptr %26, null
  br i1 %27, label %32, label %28

28:                                               ; preds = %25
  br label %29

29:                                               ; preds = %28
  br label %30

30:                                               ; preds = %29
  br label %31

31:                                               ; preds = %30, %31
  br label %31

32:                                               ; preds = %25
  br label %33

33:                                               ; preds = %32
  %34 = load i32, ptr %8, align 4, !tbaa !3
  %35 = icmp ult i32 %34, 32
  br i1 %35, label %36, label %49

36:                                               ; preds = %33
  %37 = load ptr, ptr %7, align 8, !tbaa !19
  %38 = getelementptr inbounds nuw %struct.lv_font_glyph_dsc_t, ptr %37, i32 0, i32 1
  store i16 0, ptr %38, align 8, !tbaa !63
  %39 = load ptr, ptr %7, align 8, !tbaa !19
  %40 = getelementptr inbounds nuw %struct.lv_font_glyph_dsc_t, ptr %39, i32 0, i32 3
  store i16 0, ptr %40, align 4, !tbaa !65
  %41 = load ptr, ptr %7, align 8, !tbaa !19
  %42 = getelementptr inbounds nuw %struct.lv_font_glyph_dsc_t, ptr %41, i32 0, i32 2
  store i16 0, ptr %42, align 2, !tbaa !67
  %43 = load ptr, ptr %7, align 8, !tbaa !19
  %44 = getelementptr inbounds nuw %struct.lv_font_glyph_dsc_t, ptr %43, i32 0, i32 4
  store i16 0, ptr %44, align 2, !tbaa !69
  %45 = load ptr, ptr %7, align 8, !tbaa !19
  %46 = getelementptr inbounds nuw %struct.lv_font_glyph_dsc_t, ptr %45, i32 0, i32 5
  store i16 0, ptr %46, align 8, !tbaa !71
  %47 = load ptr, ptr %7, align 8, !tbaa !19
  %48 = getelementptr inbounds nuw %struct.lv_font_glyph_dsc_t, ptr %47, i32 0, i32 6
  store i32 0, ptr %48, align 4, !tbaa !72
  store i1 true, ptr %5, align 1
  br label %135

49:                                               ; preds = %33
  call void @llvm.lifetime.start.p0(i64 8, ptr %10) #6
  %50 = load ptr, ptr %6, align 8, !tbaa !88
  %51 = getelementptr inbounds nuw %struct._lv_font_t, ptr %50, i32 0, i32 8
  %52 = load ptr, ptr %51, align 8, !tbaa !89
  store ptr %52, ptr %10, align 8, !tbaa !20
  br label %53

53:                                               ; preds = %49
  br label %54

54:                                               ; preds = %53
  %55 = load ptr, ptr %10, align 8, !tbaa !20
  %56 = icmp ne ptr %55, null
  br i1 %56, label %63, label %57

57:                                               ; preds = %54
  br label %58

58:                                               ; preds = %57
  br label %59

59:                                               ; preds = %58
  br label %60

60:                                               ; preds = %59
  br label %61

61:                                               ; preds = %62, %60
  br label %62

62:                                               ; preds = %61
  br label %61

63:                                               ; preds = %54
  br label %64

64:                                               ; preds = %63
  br label %65

65:                                               ; preds = %64
  br label %66

66:                                               ; preds = %65
  %67 = load ptr, ptr %10, align 8, !tbaa !20
  %68 = getelementptr inbounds nuw %struct._lv_freetype_font_dsc_t, ptr %67, i32 0, i32 0
  %69 = load i32, ptr %68, align 8, !tbaa !86
  %70 = icmp eq i32 %69, 1600079444
  br i1 %70, label %77, label %71

71:                                               ; preds = %66
  br label %72

72:                                               ; preds = %71
  br label %73

73:                                               ; preds = %72
  br label %74

74:                                               ; preds = %73
  br label %75

75:                                               ; preds = %76, %74
  br label %76

76:                                               ; preds = %75
  br label %75

77:                                               ; preds = %66
  br label %78

78:                                               ; preds = %77
  br label %79

79:                                               ; preds = %78
  br label %80

80:                                               ; preds = %79
  br label %81

81:                                               ; preds = %80
  call void @llvm.lifetime.start.p0(i64 56, ptr %11) #6
  call void @llvm.memset.p0.i64(ptr align 8 %11, i8 0, i64 56, i1 false)
  %82 = getelementptr inbounds nuw %struct._lv_freetype_glyph_cache_data_t, ptr %11, i32 0, i32 0
  %83 = load i32, ptr %8, align 4, !tbaa !3
  store i32 %83, ptr %82, align 8, !tbaa !12
  %84 = getelementptr inbounds nuw %struct._lv_freetype_glyph_cache_data_t, ptr %11, i32 0, i32 1
  %85 = load ptr, ptr %10, align 8, !tbaa !20
  %86 = getelementptr inbounds nuw %struct._lv_freetype_font_dsc_t, ptr %85, i32 0, i32 2
  %87 = load i32, ptr %86, align 8, !tbaa !48
  store i32 %87, ptr %84, align 4, !tbaa !18
  call void @llvm.lifetime.start.p0(i64 8, ptr %12) #6
  %88 = load ptr, ptr %10, align 8, !tbaa !20
  %89 = getelementptr inbounds nuw %struct._lv_freetype_font_dsc_t, ptr %88, i32 0, i32 6
  %90 = load ptr, ptr %89, align 8, !tbaa !22
  %91 = getelementptr inbounds nuw %struct._lv_freetype_cache_node_t, ptr %90, i32 0, i32 6
  %92 = load ptr, ptr %91, align 8, !tbaa !90
  store ptr %92, ptr %12, align 8, !tbaa !7
  call void @llvm.lifetime.start.p0(i64 8, ptr %13) #6
  %93 = load ptr, ptr %12, align 8, !tbaa !7
  %94 = load ptr, ptr %10, align 8, !tbaa !20
  %95 = call ptr @lv_cache_acquire_or_create(ptr noundef %93, ptr noundef %11, ptr noundef %94)
  store ptr %95, ptr %13, align 8, !tbaa !91
  %96 = load ptr, ptr %13, align 8, !tbaa !91
  %97 = icmp eq ptr %96, null
  br i1 %97, label %98, label %102

98:                                               ; preds = %81
  br label %99

99:                                               ; preds = %98
  br label %100

100:                                              ; preds = %99
  br label %101

101:                                              ; preds = %100
  store i1 false, ptr %5, align 1
  store i32 1, ptr %14, align 4
  br label %134

102:                                              ; preds = %81
  call void @llvm.lifetime.start.p0(i64 8, ptr %15) #6
  %103 = load ptr, ptr %13, align 8, !tbaa !91
  %104 = call ptr @lv_cache_entry_get_data(ptr noundef %103)
  store ptr %104, ptr %15, align 8, !tbaa !10
  %105 = load ptr, ptr %7, align 8, !tbaa !19
  %106 = load ptr, ptr %15, align 8, !tbaa !10
  %107 = getelementptr inbounds nuw %struct._lv_freetype_glyph_cache_data_t, ptr %106, i32 0, i32 2
  call void @llvm.memcpy.p0.p0.i64(ptr align 8 %105, ptr align 8 %107, i64 48, i1 false), !tbaa.struct !92
  %108 = load ptr, ptr %10, align 8, !tbaa !20
  %109 = getelementptr inbounds nuw %struct._lv_freetype_font_dsc_t, ptr %108, i32 0, i32 3
  %110 = load i32, ptr %109, align 4, !tbaa !73
  %111 = and i32 %110, 1
  %112 = icmp ne i32 %111, 0
  br i1 %112, label %113, label %129

113:                                              ; preds = %102
  %114 = load i32, ptr %9, align 4, !tbaa !3
  %115 = icmp eq i32 %114, 0
  br i1 %115, label %116, label %129

116:                                              ; preds = %113
  %117 = load ptr, ptr %7, align 8, !tbaa !19
  %118 = getelementptr inbounds nuw %struct.lv_font_glyph_dsc_t, ptr %117, i32 0, i32 2
  %119 = load i16, ptr %118, align 2, !tbaa !67
  %120 = zext i16 %119 to i32
  %121 = load ptr, ptr %7, align 8, !tbaa !19
  %122 = getelementptr inbounds nuw %struct.lv_font_glyph_dsc_t, ptr %121, i32 0, i32 4
  %123 = load i16, ptr %122, align 2, !tbaa !69
  %124 = sext i16 %123 to i32
  %125 = add nsw i32 %120, %124
  %126 = trunc i32 %125 to i16
  %127 = load ptr, ptr %7, align 8, !tbaa !19
  %128 = getelementptr inbounds nuw %struct.lv_font_glyph_dsc_t, ptr %127, i32 0, i32 1
  store i16 %126, ptr %128, align 8, !tbaa !63
  br label %129

129:                                              ; preds = %116, %113, %102
  %130 = load ptr, ptr %7, align 8, !tbaa !19
  %131 = getelementptr inbounds nuw %struct.lv_font_glyph_dsc_t, ptr %130, i32 0, i32 9
  store ptr null, ptr %131, align 8, !tbaa !94
  %132 = load ptr, ptr %12, align 8, !tbaa !7
  %133 = load ptr, ptr %13, align 8, !tbaa !91
  call void @lv_cache_release(ptr noundef %132, ptr noundef %133, ptr noundef null)
  store i1 true, ptr %5, align 1
  store i32 1, ptr %14, align 4
  call void @llvm.lifetime.end.p0(i64 8, ptr %15) #6
  br label %134

134:                                              ; preds = %129, %101
  call void @llvm.lifetime.end.p0(i64 8, ptr %13) #6
  call void @llvm.lifetime.end.p0(i64 8, ptr %12) #6
  call void @llvm.lifetime.end.p0(i64 56, ptr %11) #6
  call void @llvm.lifetime.end.p0(i64 8, ptr %10) #6
  br label %135

135:                                              ; preds = %134, %36
  %136 = load i1, ptr %5, align 1
  ret i1 %136
}