; Function Attrs: nounwind uwtable
define internal noundef zeroext i1 @freetype_get_glyph_dsc_cb(ptr noundef readonly captures(address_is_null) %0, ptr noundef captures(address_is_null) %1, i32 noundef %2, i32 noundef %3) #0 {
  %5 = alloca %struct._lv_freetype_glyph_cache_data_t, align 8
  %.not = icmp eq ptr %0, null
  br i1 %.not, label %.preheader, label %6

.preheader:                                       ; preds = %4, %.preheader
  br label %.preheader

6:                                                ; preds = %4
  %.not35 = icmp eq ptr %1, null
  br i1 %.not35, label %.preheader37, label %7

.preheader37:                                     ; preds = %6, %.preheader37
  br label %.preheader37

7:                                                ; preds = %6
  %8 = icmp ult i32 %2, 32
  br i1 %8, label %9, label %12

9:                                                ; preds = %7
  %10 = getelementptr inbounds nuw i8, ptr %1, i64 8
  %11 = getelementptr inbounds nuw i8, ptr %1, i64 20
  store i32 0, ptr %11, align 4, !tbaa !63
  tail call void @llvm.memset.p0.i64(ptr noundef nonnull align 8 dereferenceable(10) %10, i8 0, i64 10, i1 false)
  br label %47

12:                                               ; preds = %7
  %13 = getelementptr inbounds nuw i8, ptr %0, i64 40
  %14 = load ptr, ptr %13, align 8, !tbaa !74
  %.not36 = icmp eq ptr %14, null
  br i1 %.not36, label %.preheader38, label %15

.preheader38:                                     ; preds = %12, %.preheader38
  br label %.preheader38

15:                                               ; preds = %12
  %16 = load i32, ptr %14, align 8, !tbaa !72
  %17 = icmp eq i32 %16, 1600079444
  br i1 %17, label %18, label %.preheader39

.preheader39:                                     ; preds = %15, %.preheader39
  br label %.preheader39

18:                                               ; preds = %15
  call void @llvm.lifetime.start.p0(i64 56, ptr nonnull %5) #8
  %19 = getelementptr inbounds nuw i8, ptr %5, i64 8
  call void @llvm.memset.p0.i64(ptr noundef nonnull align 8 dereferenceable(56) %19, i8 0, i64 48, i1 false)
  store i32 %2, ptr %5, align 8, !tbaa !3
  %20 = getelementptr inbounds nuw i8, ptr %5, i64 4
  %21 = getelementptr inbounds nuw i8, ptr %14, i64 72
  %22 = load i32, ptr %21, align 8, !tbaa !40
  store i32 %22, ptr %20, align 4, !tbaa !13
  %23 = getelementptr inbounds nuw i8, ptr %14, i64 96
  %24 = load ptr, ptr %23, align 8, !tbaa !14
  %25 = getelementptr inbounds nuw i8, ptr %24, i64 40
  %26 = load ptr, ptr %25, align 8, !tbaa !75
  %27 = call ptr @lv_cache_acquire_or_create(ptr noundef %26, ptr noundef nonnull %5, ptr noundef nonnull %14) #8
  %28 = icmp ne ptr %27, null
  br i1 %28, label %29, label %46

29:                                               ; preds = %18
  %30 = call ptr @lv_cache_entry_get_data(ptr noundef nonnull %27) #8
  %31 = getelementptr inbounds nuw i8, ptr %30, i64 8
  call void @llvm.memcpy.p0.p0.i64(ptr noundef nonnull align 8 dereferenceable(48) %1, ptr noundef nonnull align 8 dereferenceable(48) %31, i64 48, i1 false), !tbaa.struct !76
  %32 = getelementptr inbounds nuw i8, ptr %14, i64 76
  %33 = load i32, ptr %32, align 4, !tbaa !64
  %34 = and i32 %33, 1
  %35 = icmp ne i32 %34, 0
  %36 = icmp eq i32 %3, 0
  %or.cond = and i1 %36, %35
  br i1 %or.cond, label %37, label %44

37:                                               ; preds = %29
  %38 = getelementptr inbounds nuw i8, ptr %1, i64 10
  %39 = load i16, ptr %38, align 2, !tbaa !58
  %40 = getelementptr inbounds nuw i8, ptr %1, i64 14
  %41 = load i16, ptr %40, align 2, !tbaa !60
  %42 = add i16 %41, %39
  %43 = getelementptr inbounds nuw i8, ptr %1, i64 8
  store i16 %42, ptr %43, align 8, !tbaa !54
  br label %44

44:                                               ; preds = %37, %29
  %45 = getelementptr inbounds nuw i8, ptr %1, i64 40
  store ptr null, ptr %45, align 8, !tbaa !81
  call void @lv_cache_release(ptr noundef %26, ptr noundef nonnull %27, ptr noundef null) #8
  br label %46

46:                                               ; preds = %18, %44
  call void @llvm.lifetime.end.p0(i64 56, ptr nonnull %5) #8
  br label %47

47:                                               ; preds = %46, %9
  %.0 = phi i1 [ true, %9 ], [ %28, %46 ]
  ret i1 %.0
}